; Function Attrs: mustprogress sspstrong uwtable
define void @_ZN3tbb6detail2r128notify_bounded_queue_monitorEPNS1_18concurrent_monitorEmm(ptr noundef %0, i64 noundef %1, i64 noundef %2) local_unnamed_addr #0 {
  %4 = alloca i8, align 1
  %5 = alloca %"struct.tbb::detail::r1::predicate_leq", align 8
  %6 = getelementptr inbounds nuw %"class.tbb::detail::r1::concurrent_monitor", ptr %0, i64 %1
  call void @llvm.lifetime.start.p0(i64 8, ptr nonnull %5) #9
  store i64 %2, ptr %5, align 8, !tbaa !40
  call void @llvm.lifetime.start.p0(i64 1, ptr nonnull %4) #9
  store i8 0, ptr %4, align 1, !tbaa !10
  call void asm sideeffect "lock; notb $0", "=*m,*m,~{memory},~{dirflag},~{fpsr},~{flags}"(ptr nonnull elementtype(i8) %4, ptr nonnull elementtype(i8) %4) #9, !srcloc !11
  call void @llvm.lifetime.end.p0(i64 1, ptr nonnull %4) #9
  call void @_ZN3tbb6detail2r123concurrent_monitor_baseImE14notify_relaxedINS1_13predicate_leqEEEvRKT_(ptr noundef nonnull align 8 dereferenceable(36) %6, ptr noundef nonnull align 8 dereferenceable(8) %5)
  call void @llvm.lifetime.end.p0(i64 8, ptr nonnull %5) #9
  ret void
}